ccopy_reg
_reconstructor
p0
(cgoogle.oauth2.credentials
Credentials
p1
c__builtin__
object
p2
Ntp3
Rp4
(dp5
S'_quota_project_id'
p6
NsS'_token_uri'
p7
Vhttps://oauth2.googleapis.com/token
p8
sS'_client_secret'
p9
Vh9Bg3lcoxsTJjLJnqdu1Dolc
p10
sS'_default_scopes'
p11
NsS'expiry'
p12
cdatetime
datetime
p13
(S'\x07\xe5\x07\x03\x14\n\x12\r\xd9\x8f'
p14
tp15
Rp16
sS'token'
p17
Vya29.a0ARrdaM8bvHbaJV56y10khqdjlE-i1_VF_d4HcVlzY05BafOzIAinrNDp6W7TyeI5dAryziChGok3sBl1i_oVEv7nbufejgwqTpt5h96yIupUKJtJX4nKXvtrtUmnHPJZC4dLrKCmb_ZJq_DvW0txBzRV_VBS
p18
sS'_refresh_token'
p19
V1//0g2mytGPgXYKZCgYIARAAGBASNwF-L9IrGkR8iLfsx0YkGV4Nk80nEVGIU9nSy_4TdWWGBlNRYNJCtTqD73NZadp_urktR0-EaYU
p20
sS'_scopes'
p21
(lp22
S'https://www.googleapis.com/auth/drive'
p23
asS'_client_id'
p24
V469156398800-6457a02mhs048v6ahi35uqhcdg0q0pqg.apps.googleusercontent.com
p25
sS'_id_token'
p26
NsS'_rapt_token'
p27
Nsb.